; Function Attrs: mustprogress uwtable
define dso_local void @_ZN4onnx19TensorProto_Segment9MergeFromERKS0_(ptr noundef nonnull align 8 dereferenceable(40) %0, ptr noundef nonnull readonly align 8 captures(none) dereferenceable(40) %1) local_unnamed_addr #3 align 2 personality ptr @__gxx_personality_v0 {
  %3 = getelementptr inbounds nuw i8, ptr %0, i64 8
  %4 = getelementptr inbounds nuw i8, ptr %1, i64 8
  %5 = load ptr, ptr %4, align 8, !tbaa !4
  %6 = ptrtoint ptr %5 to i64
  %7 = and i64 %6, 1
  %.not10 = icmp eq i64 %7, 0
  br i1 %.not10, label %_ZN6google8protobuf8internal16InternalMetadata9MergeFromINS0_15UnknownFieldSetEEEvRKS2_.exit, label %_ZNK6google8protobuf8internal16InternalMetadata14unknown_fieldsINS0_15UnknownFieldSetEEERKT_PFS7_vE.exit

_ZNK6google8protobuf8internal16InternalMetadata14unknown_fieldsINS0_15UnknownFieldSetEEERKT_PFS7_vE.exit: ; preds = %2
  %8 = and i64 %6, -2
  %9 = inttoptr i64 %8 to ptr
  %10 = getelementptr inbounds nuw i8, ptr %9, i64 8
  %11 = load ptr, ptr %3, align 8, !tbaa !4
  %12 = ptrtoint ptr %11 to i64
  %13 = and i64 %12, 1
  %.not.i = icmp eq i64 %13, 0
  br i1 %.not.i, label %18, label %14, !prof !85

14:                                               ; preds = %_ZNK6google8protobuf8internal16InternalMetadata14unknown_fieldsINS0_15UnknownFieldSetEEERKT_PFS7_vE.exit
  %15 = and i64 %12, -2
  %16 = inttoptr i64 %15 to ptr
  %17 = getelementptr inbounds nuw i8, ptr %16, i64 8
  br label %_ZN6google8protobuf8internal16InternalMetadata11DoMergeFromINS0_15UnknownFieldSetEEEvRKT_.exit

18:                                               ; preds = %_ZNK6google8protobuf8internal16InternalMetadata14unknown_fieldsINS0_15UnknownFieldSetEEERKT_PFS7_vE.exit
  %19 = tail call noundef ptr @_ZN6google8protobuf8internal16InternalMetadata27mutable_unknown_fields_slowINS0_15UnknownFieldSetEEEPT_v(ptr noundef nonnull align 8 dereferenceable(8) %3)
  br label %_ZN6google8protobuf8internal16InternalMetadata11DoMergeFromINS0_15UnknownFieldSetEEEvRKT_.exit

_ZN6google8protobuf8internal16InternalMetadata11DoMergeFromINS0_15UnknownFieldSetEEEvRKT_.exit: ; preds = %14, %18
  %.0.i.i = phi ptr [ %17, %14 ], [ %19, %18 ]
  tail call void @_ZN6google8protobuf15UnknownFieldSet9MergeFromERKS1_(ptr noundef nonnull align 8 dereferenceable(24) %.0.i.i, ptr noundef nonnull align 8 dereferenceable(24) %10)
  br label %_ZN6google8protobuf8internal16InternalMetadata9MergeFromINS0_15UnknownFieldSetEEEvRKS2_.exit

_ZN6google8protobuf8internal16InternalMetadata9MergeFromINS0_15UnknownFieldSetEEEvRKS2_.exit: ; preds = %2, %_ZN6google8protobuf8internal16InternalMetadata11DoMergeFromINS0_15UnknownFieldSetEEEvRKT_.exit
  %20 = getelementptr inbounds nuw i8, ptr %1, i64 16
  %21 = load i32, ptr %20, align 8, !tbaa !50
  %22 = and i32 %21, 3
  %.not = icmp eq i32 %22, 0
  br i1 %.not, label %39, label %23

23:                                               ; preds = %_ZN6google8protobuf8internal16InternalMetadata9MergeFromINS0_15UnknownFieldSetEEEvRKS2_.exit
  %24 = and i32 %21, 1
  %.not8 = icmp eq i32 %24, 0
  br i1 %.not8, label %29, label %25

25:                                               ; preds = %23
  %26 = getelementptr inbounds nuw i8, ptr %1, i64 24
  %27 = load i64, ptr %26, align 8, !tbaa !164
  %28 = getelementptr inbounds nuw i8, ptr %0, i64 24
  store i64 %27, ptr %28, align 8, !tbaa !164
  br label %29

29:                                               ; preds = %25, %23
  %30 = and i32 %21, 2
  %.not9 = icmp eq i32 %30, 0
  br i1 %.not9, label %35, label %31

31:                                               ; preds = %29
  %32 = getelementptr inbounds nuw i8, ptr %1, i64 32
  %33 = load i64, ptr %32, align 8, !tbaa !166
  %34 = getelementptr inbounds nuw i8, ptr %0, i64 32
  store i64 %33, ptr %34, align 8, !tbaa !166
  br label %35

35:                                               ; preds = %31, %29
  %36 = getelementptr inbounds nuw i8, ptr %0, i64 16
  %37 = load i32, ptr %36, align 8, !tbaa !50
  %38 = or i32 %37, %21
  store i32 %38, ptr %36, align 8, !tbaa !50
  br label %39

39:                                               ; preds = %35, %_ZN6google8protobuf8internal16InternalMetadata9MergeFromINS0_15UnknownFieldSetEEEvRKS2_.exit
  ret void
}